target datalayout = "e-m:e-p270:32:32-p271:32:32-p272:64:64-i64:64-i128:128-f80:128-n8:16:32:64-S128"
target triple = "x86_64-unknown-linux-gnu"

%struct.QTailQLink = type { ptr, ptr }
%struct.qemu_plugin_state = type { %union.anon.0, [9 x %struct.anon], ptr, ptr, [1 x i64], %struct.QemuRecMutex, %struct.qht }
%union.anon.0 = type { %struct.QTailQLink }
%struct.anon = type { ptr }
%struct.QemuRecMutex = type { %struct.QemuMutex }
%struct.QemuMutex = type { %union.pthread_mutex_t, i8 }
%union.pthread_mutex_t = type { %struct.__pthread_mutex_s }
%struct.__pthread_mutex_s = type { i32, i32, i32, i32, i32, i16, i16, %struct.__pthread_internal_list }
%struct.__pthread_internal_list = type { ptr, ptr }
%struct.qht = type { ptr, ptr, %struct.QemuMutex, i32 }
%struct.qemu_plugin_ctx = type { ptr, i64, [9 x ptr], %union.anon.5, ptr, i8, i8, i8 }
%union.anon.5 = type { %struct.QTailQLink }
%struct.QemuLockable = type { ptr, ptr, ptr }
%union.run_on_cpu_data = type { i64 }
%struct.qemu_plugin_reset_data = type { ptr, ptr, i8 }

@plugin = external global %struct.qemu_plugin_state, align 8
@current_cpu = external thread_local global ptr, align 8

; Function Attrs: nounwind sspstrong uwtable
define internal void @glib_autoptr_clear_QemuLockable(ptr noundef %_ptr) #0 {
entry:
  %_ptr.addr = alloca ptr, align 8
  store ptr %_ptr, ptr %_ptr.addr, align 8
  %0 = load ptr, ptr %_ptr.addr, align 8
  %tobool = icmp ne ptr %0, null
  br i1 %tobool, label %if.then, label %if.end

if.then:                                          ; preds = %entry
  %1 = load ptr, ptr %_ptr.addr, align 8
  call void @qemu_lockable_auto_unlock(ptr noundef %1)
  br label %if.end

if.end:                                           ; preds = %if.then, %entry
  ret void
}

; Function Attrs: nounwind sspstrong uwtable
define internal void @qemu_lockable_unlock(ptr noundef %x) #0 {
entry:
  %x.addr = alloca ptr, align 8
  store ptr %x, ptr %x.addr, align 8
  %0 = load ptr, ptr %x.addr, align 8
  %unlock = getelementptr inbounds %struct.QemuLockable, ptr %0, i32 0, i32 2
  %1 = load ptr, ptr %unlock, align 8
  %2 = load ptr, ptr %x.addr, align 8
  %object = getelementptr inbounds %struct.QemuLockable, ptr %2, i32 0, i32 0
  %3 = load ptr, ptr %object, align 8
  call void %1(ptr noundef %3)
  ret void
}

; Function Attrs: nounwind sspstrong uwtable
define internal void @qemu_lockable_lock(ptr noundef %x) #0 {
entry:
  %x.addr = alloca ptr, align 8
  store ptr %x, ptr %x.addr, align 8
  %0 = load ptr, ptr %x.addr, align 8
  %lock = getelementptr inbounds %struct.QemuLockable, ptr %0, i32 0, i32 1
  %1 = load ptr, ptr %lock, align 8
  %2 = load ptr, ptr %x.addr, align 8
  %object = getelementptr inbounds %struct.QemuLockable, ptr %2, i32 0, i32 0
  %3 = load ptr, ptr %object, align 8
  call void %1(ptr noundef %3)
  ret void
}

; Function Attrs: nounwind sspstrong uwtable
define internal void @glib_autoptr_cleanup_QemuLockable(ptr noundef %_ptr) #0 {
entry:
  %_ptr.addr = alloca ptr, align 8
  store ptr %_ptr, ptr %_ptr.addr, align 8
  %0 = load ptr, ptr %_ptr.addr, align 8
  %1 = load ptr, ptr %0, align 8
  call void @glib_autoptr_clear_QemuLockable(ptr noundef %1)
  ret void
}

; Function Attrs: nounwind sspstrong uwtable
define internal void @qemu_lockable_auto_unlock(ptr noundef %x) #0 {
entry:
  %x.addr = alloca ptr, align 8
  store ptr %x, ptr %x.addr, align 8
  %0 = load ptr, ptr %x.addr, align 8
  %tobool = icmp ne ptr %0, null
  br i1 %tobool, label %if.then, label %if.end

if.then:                                          ; preds = %entry
  %1 = load ptr, ptr %x.addr, align 8
  call void @qemu_lockable_unlock(ptr noundef %1)
  br label %if.end

if.end:                                           ; preds = %if.then, %entry
  ret void
}

; Function Attrs: nounwind sspstrong uwtable
define internal ptr @qemu_lockable_auto_lock(ptr noundef %x) #0 {
entry:
  %x.addr = alloca ptr, align 8
  store ptr %x, ptr %x.addr, align 8
  %0 = load ptr, ptr %x.addr, align 8
  call void @qemu_lockable_lock(ptr noundef %0)
  %1 = load ptr, ptr %x.addr, align 8
  ret ptr %1
}

; Function Attrs: nounwind sspstrong uwtable
define dso_local void @plugin_reset_uninstall(i64 noundef %id, ptr noundef %cb, i1 noundef zeroext %reset) #0 {
entry:
  %id.addr = alloca i64, align 8
  %cb.addr = alloca ptr, align 8
  %reset.addr = alloca i8, align 1
  %data = alloca ptr, align 8
  %ctx = alloca ptr, align 8
  %qemu_lockable_auto0 = alloca ptr, align 8
  %.compoundliteral = alloca %struct.QemuLockable, align 8
  %cleanup.dest.slot = alloca i32, align 4
  %.compoundliteral19 = alloca %union.run_on_cpu_data, align 8
  store i64 %id, ptr %id.addr, align 8
  store ptr %cb, ptr %cb.addr, align 8
  %frombool = zext i1 %reset to i8
  store i8 %frombool, ptr %reset.addr, align 1
  %object = getelementptr inbounds %struct.QemuLockable, ptr %.compoundliteral, i32 0, i32 0
  %0 = getelementptr inbounds %struct.qemu_plugin_state, ptr @plugin, i32 0, i32 5
  store ptr %0, ptr %object, align 8
  %lock = getelementptr inbounds %struct.QemuLockable, ptr %.compoundliteral, i32 0, i32 1
  store ptr @qemu_rec_mutex_lock, ptr %lock, align 8
  %unlock = getelementptr inbounds %struct.QemuLockable, ptr %.compoundliteral, i32 0, i32 2
  store ptr @qemu_rec_mutex_unlock, ptr %unlock, align 8
  %call = call ptr @qemu_lockable_auto_lock(ptr noundef %.compoundliteral)
  store ptr %call, ptr %qemu_lockable_auto0, align 8
  br label %for.cond

for.cond:                                         ; preds = %for.inc, %entry
  %1 = load ptr, ptr %qemu_lockable_auto0, align 8
  %tobool = icmp ne ptr %1, null
  br i1 %tobool, label %for.body, label %for.cond.cleanup

for.cond.cleanup:                                 ; preds = %for.cond
  store i32 2, ptr %cleanup.dest.slot, align 4
  br label %cleanup

for.body:                                         ; preds = %for.cond
  %2 = load i64, ptr %id.addr, align 8
  %call1 = call ptr @plugin_id_to_ctx_locked(i64 noundef %2)
  store ptr %call1, ptr %ctx, align 8
  %3 = load ptr, ptr %ctx, align 8
  %uninstalling = getelementptr inbounds %struct.qemu_plugin_ctx, ptr %3, i32 0, i32 6
  %4 = load i8, ptr %uninstalling, align 1
  %tobool2 = trunc i8 %4 to i1
  br i1 %tobool2, label %if.then, label %lor.lhs.false

lor.lhs.false:                                    ; preds = %for.body
  %5 = load i8, ptr %reset.addr, align 1
  %tobool3 = trunc i8 %5 to i1
  br i1 %tobool3, label %land.lhs.true, label %if.end

land.lhs.true:                                    ; preds = %lor.lhs.false
  %6 = load ptr, ptr %ctx, align 8
  %resetting = getelementptr inbounds %struct.qemu_plugin_ctx, ptr %6, i32 0, i32 7
  %7 = load i8, ptr %resetting, align 2
  %tobool4 = trunc i8 %7 to i1
  br i1 %tobool4, label %if.then, label %if.end

if.then:                                          ; preds = %land.lhs.true, %for.body
  store i32 1, ptr %cleanup.dest.slot, align 4
  br label %cleanup

if.end:                                           ; preds = %land.lhs.true, %lor.lhs.false
  %8 = load i8, ptr %reset.addr, align 1
  %tobool5 = trunc i8 %8 to i1
  %9 = load ptr, ptr %ctx, align 8
  %resetting6 = getelementptr inbounds %struct.qemu_plugin_ctx, ptr %9, i32 0, i32 7
  %frombool7 = zext i1 %tobool5 to i8
  store i8 %frombool7, ptr %resetting6, align 2
  %10 = load i8, ptr %reset.addr, align 1
  %tobool8 = trunc i8 %10 to i1
  %lnot = xor i1 %tobool8, true
  %11 = load ptr, ptr %ctx, align 8
  %uninstalling9 = getelementptr inbounds %struct.qemu_plugin_ctx, ptr %11, i32 0, i32 6
  %frombool10 = zext i1 %lnot to i8
  store i8 %frombool10, ptr %uninstalling9, align 1
  br label %for.inc

for.inc:                                          ; preds = %if.end
  %12 = load ptr, ptr %qemu_lockable_auto0, align 8
  call void @qemu_lockable_auto_unlock(ptr noundef %12)
  store ptr null, ptr %qemu_lockable_auto0, align 8
  br label %for.cond, !llvm.loop !7

cleanup:                                          ; preds = %if.then, %for.cond.cleanup
  call void @glib_autoptr_cleanup_QemuLockable(ptr noundef %qemu_lockable_auto0)
  %cleanup.dest = load i32, ptr %cleanup.dest.slot, align 4
  switch i32 %cleanup.dest, label %unreachable [
    i32 2, label %for.end
    i32 1, label %if.end20
  ]

for.end:                                          ; preds = %cleanup
  %call11 = call noalias ptr @g_malloc_n(i64 noundef 1, i64 noundef 24) #11
  store ptr %call11, ptr %data, align 8
  %13 = load ptr, ptr %ctx, align 8
  %14 = load ptr, ptr %data, align 8
  %ctx12 = getelementptr inbounds %struct.qemu_plugin_reset_data, ptr %14, i32 0, i32 0
  store ptr %13, ptr %ctx12, align 8
  %15 = load ptr, ptr %cb.addr, align 8
  %16 = load ptr, ptr %data, align 8
  %cb13 = getelementptr inbounds %struct.qemu_plugin_reset_data, ptr %16, i32 0, i32 1
  store ptr %15, ptr %cb13, align 8
  %17 = load i8, ptr %reset.addr, align 1
  %tobool14 = trunc i8 %17 to i1
  %18 = load ptr, ptr %data, align 8
  %reset15 = getelementptr inbounds %struct.qemu_plugin_reset_data, ptr %18, i32 0, i32 2
  %frombool16 = zext i1 %tobool14 to i8
  store i8 %frombool16, ptr %reset15, align 8
  %19 = call align 8 ptr @llvm.threadlocal.address.p0(ptr align 8 @current_cpu)
  %20 = load ptr, ptr %19, align 8
  %tobool17 = icmp ne ptr %20, null
  br i1 %tobool17, label %if.then18, label %if.else

if.then18:                                        ; preds = %for.end
  %21 = call align 8 ptr @llvm.threadlocal.address.p0(ptr align 8 @current_cpu)
  %22 = load ptr, ptr %21, align 8
  %23 = load ptr, ptr %data, align 8
  store ptr %23, ptr %.compoundliteral19, align 8
  %coerce.dive = getelementptr inbounds %union.run_on_cpu_data, ptr %.compoundliteral19, i32 0, i32 0
  %24 = load i64, ptr %coerce.dive, align 8
  call void @async_safe_run_on_cpu(ptr noundef %22, ptr noundef @plugin_flush_destroy, i64 %24)
  br label %if.end20

if.else:                                          ; preds = %for.end
  %25 = load ptr, ptr %data, align 8
  call void @plugin_reset_destroy(ptr noundef %25)
  br label %if.end20

if.end20:                                         ; preds = %if.else, %if.then18, %cleanup
  ret void

unreachable:                                      ; preds = %cleanup
  unreachable
}