; Function Attrs: nounwind sspstrong uwtable
define dso_local void @plugin_reset_uninstall(i64 noundef %id, ptr noundef %cb, i1 noundef zeroext %reset) local_unnamed_addr #0 {
entry:
  %frombool = zext i1 %reset to i8
  %0 = load atomic i64, ptr @qemu_rec_mutex_lock_func monotonic, align 8
  %1 = inttoptr i64 %0 to ptr
  tail call void %1(ptr noundef nonnull getelementptr inbounds nuw (i8, ptr @plugin, i64 112), ptr noundef nonnull @.str.24, i32 noundef 137) #11
  %lnot = xor i1 %reset, true
  %frombool10 = zext i1 %lnot to i8
  %call1.us.us = tail call ptr @plugin_id_to_ctx_locked(i64 noundef %id) #11
  %uninstalling.us.us = getelementptr inbounds nuw i8, ptr %call1.us.us, i64 113
  %2 = load i8, ptr %uninstalling.us.us, align 1
  %tobool2.us.us = trunc i8 %2 to i1
  br i1 %reset, label %for.body.us.us, label %for.body.us30

for.body.us.us:                                   ; preds = %entry
  br i1 %tobool2.us.us, label %glib_autoptr_cleanup_QemuLockable.exit, label %lor.lhs.false.us.us

lor.lhs.false.us.us:                              ; preds = %for.body.us.us
  %resetting.us.us = getelementptr inbounds nuw i8, ptr %call1.us.us, i64 114
  %3 = load i8, ptr %resetting.us.us, align 2
  %tobool4.us.us = trunc i8 %3 to i1
  br i1 %tobool4.us.us, label %glib_autoptr_cleanup_QemuLockable.exit, label %qemu_lockable_auto_unlock.exit.us.us

qemu_lockable_auto_unlock.exit.us.us:             ; preds = %lor.lhs.false.us.us
  store i8 %frombool, ptr %resetting.us.us, align 2
  br label %for.end

for.body.us30:                                    ; preds = %entry
  br i1 %tobool2.us.us, label %glib_autoptr_cleanup_QemuLockable.exit, label %lor.lhs.false.us35

lor.lhs.false.us35:                               ; preds = %for.body.us30
  %resetting6.us36 = getelementptr inbounds nuw i8, ptr %call1.us.us, i64 114
  store i8 %frombool, ptr %resetting6.us36, align 2
  br label %for.end

glib_autoptr_cleanup_QemuLockable.exit:           ; preds = %for.body.us30, %lor.lhs.false.us.us, %for.body.us.us
  tail call void @qemu_rec_mutex_unlock_impl(ptr noundef nonnull getelementptr inbounds nuw (i8, ptr @plugin, i64 112), ptr noundef nonnull @.str.24, i32 noundef 147) #11
  br label %if.end20

for.end:                                          ; preds = %qemu_lockable_auto_unlock.exit.us.us, %lor.lhs.false.us35
  store i8 %frombool10, ptr %uninstalling.us.us, align 1
  tail call void @qemu_rec_mutex_unlock_impl(ptr noundef nonnull getelementptr inbounds nuw (i8, ptr @plugin, i64 112), ptr noundef nonnull @.str.24, i32 noundef 147) #11
  %call11 = tail call noalias dereferenceable_or_null(24) ptr @g_malloc_n(i64 noundef 1, i64 noundef 24) #15
  store ptr %call1.us.us, ptr %call11, align 8
  %cb13 = getelementptr inbounds nuw i8, ptr %call11, i64 8
  store ptr %cb, ptr %cb13, align 8
  %reset15 = getelementptr inbounds nuw i8, ptr %call11, i64 16
  store i8 %frombool, ptr %reset15, align 8
  %4 = tail call align 8 ptr @llvm.threadlocal.address.p0(ptr align 8 @current_cpu)
  %5 = load ptr, ptr %4, align 8
  %tobool17.not = icmp eq ptr %5, null
  br i1 %tobool17.not, label %if.else, label %if.then18

if.then18:                                        ; preds = %for.end
  %6 = ptrtoint ptr %call11 to i64
  tail call void @async_safe_run_on_cpu(ptr noundef nonnull %5, ptr noundef nonnull @plugin_flush_destroy, i64 %6) #11
  br label %if.end20

if.else:                                          ; preds = %for.end
  tail call fastcc void @plugin_reset_destroy(ptr noundef nonnull %call11)
  br label %if.end20

if.end20:                                         ; preds = %glib_autoptr_cleanup_QemuLockable.exit, %if.else, %if.then18
  ret void
}